target datalayout = "e-m:e-p270:32:32-p271:32:32-p272:64:64-i64:64-i128:128-f80:128-n8:16:32:64-S128"
target triple = "x86_64-pc-linux-gnu"

%struct.TT_GraphicsState_ = type { i16, i16, i16, %struct.FT_UnitVector_, %struct.FT_UnitVector_, %struct.FT_UnitVector_, i64, i64, i32, i8, i64, i64, i64, i16, i16, i8, i8, i32, i16, i16, i16 }
%struct.FT_UnitVector_ = type { i16, i16 }
%struct.TT_DriverRec_ = type { %struct.FT_DriverRec_, %struct.TT_GlyphZoneRec_, i32 }
%struct.FT_DriverRec_ = type { %struct.FT_ModuleRec_, ptr, %struct.FT_ListRec_, ptr }
%struct.FT_ModuleRec_ = type { ptr, ptr, ptr }
%struct.FT_ListRec_ = type { ptr, ptr }
%struct.TT_GlyphZoneRec_ = type { ptr, i16, i16, i16, i16, ptr, ptr, ptr, ptr, ptr, i16 }
%struct.FT_FaceRec_ = type { i64, i64, i64, i64, i64, ptr, ptr, i32, ptr, i32, ptr, %struct.FT_Generic_, %struct.FT_BBox_, i16, i16, i16, i16, i16, i16, i16, i16, ptr, ptr, ptr, ptr, ptr, ptr, %struct.FT_ListRec_, %struct.FT_Generic_, ptr, ptr }
%struct.FT_BBox_ = type { i64, i64, i64, i64 }
%struct.FT_Generic_ = type { ptr, ptr }
%struct.FT_Vector_ = type { i64, i64 }
%struct.FT_Size_Metrics_ = type { i16, i16, i64, i64, i64, i64, i64, i64 }
%struct.TT_Size_Metrics_ = type { i64, i64, i16, i64, i64, [4 x i64], i8, i8, i8 }
%struct.TT_CodeRange_ = type { ptr, i64 }
%struct.TT_ExecContextRec_ = type { ptr, ptr, ptr, i32, i64, i64, ptr, i64, i64, %struct.TT_GlyphZoneRec_, %struct.TT_GlyphZoneRec_, %struct.TT_GlyphZoneRec_, %struct.TT_GlyphZoneRec_, %struct.TT_GlyphZoneRec_, i64, %struct.FT_Size_Metrics_, %struct.TT_Size_Metrics_, %struct.TT_GraphicsState_, i32, i32, ptr, i64, i64, i8, i32, i8, i64, ptr, i64, ptr, i32, ptr, i32, i32, ptr, i32, i32, ptr, i32, i32, i32, i32, ptr, i16, i16, [3 x %struct.TT_CodeRange_], i16, ptr, i16, ptr, i64, i64, i64, i8, %struct.TT_GraphicsState_, i8, i8, i64, ptr, ptr, ptr, ptr, ptr, ptr, ptr, ptr, ptr, ptr, i8, i8, i8, i8, i8, i8, i8, i64, i64, i64, i64 }

; Function Attrs: nounwind uwtable
define internal void @Direct_Move_X(ptr noundef %0, ptr noundef %1, i16 noundef zeroext %2, i64 noundef %3) #0 {
  %5 = alloca ptr, align 8
  %6 = alloca ptr, align 8
  %7 = alloca i16, align 2
  %8 = alloca i64, align 8
  store ptr %0, ptr %5, align 8
  store ptr %1, ptr %6, align 8
  store i16 %2, ptr %7, align 2
  store i64 %3, ptr %8, align 8
  %9 = load ptr, ptr %5, align 8
  %10 = getelementptr inbounds %struct.TT_ExecContextRec_, ptr %9, i32 0, i32 0
  %11 = load ptr, ptr %10, align 8
  %12 = getelementptr inbounds %struct.FT_FaceRec_, ptr %11, i32 0, i32 24
  %13 = load ptr, ptr %12, align 8
  %14 = getelementptr inbounds %struct.TT_DriverRec_, ptr %13, i32 0, i32 2
  %15 = load i32, ptr %14, align 8
  %16 = icmp eq i32 %15, 40
  br i1 %16, label %17, label %40

17:                                               ; preds = %4
  %18 = load ptr, ptr %5, align 8
  %19 = getelementptr inbounds %struct.TT_ExecContextRec_, ptr %18, i32 0, i32 71
  %20 = load i8, ptr %19, align 1
  %21 = icmp ne i8 %20, 0
  br i1 %21, label %40, label %22

22:                                               ; preds = %17
  %23 = load ptr, ptr %6, align 8
  %24 = getelementptr inbounds %struct.TT_GlyphZoneRec_, ptr %23, i32 0, i32 6
  %25 = load ptr, ptr %24, align 8
  %26 = load i16, ptr %7, align 2
  %27 = zext i16 %26 to i64
  %28 = getelementptr inbounds %struct.FT_Vector_, ptr %25, i64 %27
  %29 = getelementptr inbounds %struct.FT_Vector_, ptr %28, i32 0, i32 0
  %30 = load i64, ptr %29, align 8
  %31 = load i64, ptr %8, align 8
  %32 = add i64 %30, %31
  %33 = load ptr, ptr %6, align 8
  %34 = getelementptr inbounds %struct.TT_GlyphZoneRec_, ptr %33, i32 0, i32 6
  %35 = load ptr, ptr %34, align 8
  %36 = load i16, ptr %7, align 2
  %37 = zext i16 %36 to i64
  %38 = getelementptr inbounds %struct.FT_Vector_, ptr %35, i64 %37
  %39 = getelementptr inbounds %struct.FT_Vector_, ptr %38, i32 0, i32 0
  store i64 %32, ptr %39, align 8
  br label %68

40:                                               ; preds = %17, %4
  %41 = load ptr, ptr %5, align 8
  %42 = getelementptr inbounds %struct.TT_ExecContextRec_, ptr %41, i32 0, i32 0
  %43 = load ptr, ptr %42, align 8
  %44 = getelementptr inbounds %struct.FT_FaceRec_, ptr %43, i32 0, i32 24
  %45 = load ptr, ptr %44, align 8
  %46 = getelementptr inbounds %struct.TT_DriverRec_, ptr %45, i32 0, i32 2
  %47 = load i32, ptr %46, align 8
  %48 = icmp eq i32 %47, 35
  br i1 %48, label %49, label %67

49:                                               ; preds = %40
  %50 = load ptr, ptr %6, align 8
  %51 = getelementptr inbounds %struct.TT_GlyphZoneRec_, ptr %50, i32 0, i32 6
  %52 = load ptr, ptr %51, align 8
  %53 = load i16, ptr %7, align 2
  %54 = zext i16 %53 to i64
  %55 = getelementptr inbounds %struct.FT_Vector_, ptr %52, i64 %54
  %56 = getelementptr inbounds %struct.FT_Vector_, ptr %55, i32 0, i32 0
  %57 = load i64, ptr %56, align 8
  %58 = load i64, ptr %8, align 8
  %59 = add i64 %57, %58
  %60 = load ptr, ptr %6, align 8
  %61 = getelementptr inbounds %struct.TT_GlyphZoneRec_, ptr %60, i32 0, i32 6
  %62 = load ptr, ptr %61, align 8
  %63 = load i16, ptr %7, align 2
  %64 = zext i16 %63 to i64
  %65 = getelementptr inbounds %struct.FT_Vector_, ptr %62, i64 %64
  %66 = getelementptr inbounds %struct.FT_Vector_, ptr %65, i32 0, i32 0
  store i64 %59, ptr %66, align 8
  br label %67

67:                                               ; preds = %49, %40
  br label %68

68:                                               ; preds = %67, %22
  %69 = load ptr, ptr %6, align 8
  %70 = getelementptr inbounds %struct.TT_GlyphZoneRec_, ptr %69, i32 0, i32 8
  %71 = load ptr, ptr %70, align 8
  %72 = load i16, ptr %7, align 2
  %73 = zext i16 %72 to i64
  %74 = getelementptr inbounds i8, ptr %71, i64 %73
  %75 = load i8, ptr %74, align 1
  %76 = zext i8 %75 to i32
  %77 = or i32 %76, 8
  %78 = trunc i32 %77 to i8
  store i8 %78, ptr %74, align 1
  ret void
}