; Function Attrs: mustprogress nofree norecurse nosync nounwind willreturn memory(readwrite, inaccessiblemem: none) uwtable
define internal void @Direct_Move_X(ptr nocapture noundef readonly %0, ptr nocapture noundef readonly %1, i16 noundef zeroext %2, i64 noundef %3) #9 {
  %5 = load ptr, ptr %0, align 8
  %6 = getelementptr inbounds i8, ptr %5, i64 176
  %7 = load ptr, ptr %6, align 8
  %8 = getelementptr inbounds i8, ptr %7, i64 120
  %9 = load i32, ptr %8, align 8
  switch i32 %9, label %.thread [
    i32 40, label %10
    i32 35, label %.thread.sink.split
  ]

10:                                               ; preds = %4
  %11 = getelementptr inbounds i8, ptr %0, i64 1099
  %12 = load i8, ptr %11, align 1
  %.not = icmp eq i8 %12, 0
  br i1 %.not, label %.thread.sink.split, label %.thread

.thread.sink.split:                               ; preds = %4, %10
  %13 = getelementptr inbounds i8, ptr %1, i64 24
  %14 = load ptr, ptr %13, align 8
  %15 = zext i16 %2 to i64
  %16 = getelementptr inbounds %struct.FT_Vector_, ptr %14, i64 %15
  %17 = load i64, ptr %16, align 8
  %18 = add i64 %17, %3
  store i64 %18, ptr %16, align 8
  br label %.thread

.thread:                                          ; preds = %.thread.sink.split, %4, %10
  %19 = getelementptr inbounds i8, ptr %1, i64 40
  %20 = load ptr, ptr %19, align 8
  %21 = zext i16 %2 to i64
  %22 = getelementptr inbounds i8, ptr %20, i64 %21
  %23 = load i8, ptr %22, align 1
  %24 = or i8 %23, 8
  store i8 %24, ptr %22, align 1
  ret void
}